; Function Attrs: mustprogress nofree norecurse nosync nounwind willreturn memory(argmem: read) uwtable
define noundef i32 @_ZNK17double_conversion6Bignum11BigitOrZeroEi(ptr noundef nonnull readonly align 4 captures(none) dereferenceable(516) %0, i32 noundef %1) local_unnamed_addr #7 align 2 {
  %3 = load i16, ptr %0, align 4, !tbaa !3
  %4 = sext i16 %3 to i32
  %5 = getelementptr inbounds nuw i8, ptr %0, i64 2
  %6 = load i16, ptr %5, align 2, !tbaa !8
  %7 = sext i16 %6 to i32
  %8 = add nsw i32 %7, %4
  %.not = icmp sge i32 %1, %8
  %9 = icmp slt i32 %1, %7
  %or.cond = or i1 %9, %.not
  br i1 %or.cond, label %16, label %10

10:                                               ; preds = %2
  %11 = sub nsw i32 %1, %7
  %12 = getelementptr inbounds nuw i8, ptr %0, i64 4
  %13 = sext i32 %11 to i64
  %14 = getelementptr inbounds [128 x i32], ptr %12, i64 0, i64 %13
  %15 = load i32, ptr %14, align 4, !tbaa !9
  br label %16

16:                                               ; preds = %2, %10
  %.0 = phi i32 [ %15, %10 ], [ 0, %2 ]
  ret i32 %.0
}